Certificate:
    Data:
        Version: 1 (0x0)
        Serial Number: 9561169772222866491 (0x84b01940268be43b)
    Signature Algorithm: ecdsa-with-SHA256
        Issuer: C=UK, ST=CB, L=Cambridge, O=Arm, CN=WrongCerticateAuthority/emailAddress=mainca@arm.com
        Validity
            Not Before: Mar  6 16:03:18 2019 GMT
            Not After : Mar  3 16:03:18 2029 GMT
        Subject: C=UK, ST=CB, O=Arm, CN=libddssecApplication/emailAddress=application@arm.com
        Subject Public Key Info:
            Public Key Algorithm: id-ecPublicKey
                Public-Key: (256 bit)
                pub: 
                    04:04:69:1c:ba:43:a9:a3:5b:e9:39:4f:f9:0f:96:
                    51:ec:7b:40:d0:2d:28:d4:81:9e:e0:06:b3:fd:ee:
                    ff:74:5a:7d:4e:ec:78:1a:6f:36:16:c1:89:5a:4d:
                    21:20:b1:d5:5d:54:ea:ba:28:98:3b:a8:37:e7:4d:
                    60:78:65:7e:19
                ASN1 OID: prime256v1
                NIST CURVE: P-256
    Signature Algorithm: ecdsa-with-SHA256
         30:44:02:20:2b:df:86:07:28:60:60:34:46:74:69:fc:73:12:
         9d:f5:c5:35:82:53:79:5e:e3:cc:2b:00:49:5d:76:f7:36:5d:
         02:20:26:ea:bc:61:61:a4:f9:c2:0a:83:1f:ae:97:2d:3c:25:
         eb:7e:86:70:70:f8:dd:06:80:99:a7:8a:d8:e8:e1:35
-----BEGIN CERTIFICATE-----
MIIB1zCCAX4CCQCEsBlAJovkOzAKBggqhkjOPQQDAjB9MQswCQYDVQQGEwJVSzEL
MAkGA1UECAwCQ0IxEjAQBgNVBAcMCUNhbWJyaWRnZTEMMAoGA1UECgwDQXJtMSAw
HgYDVQQDDBdXcm9uZ0NlcnRpY2F0ZUF1dGhvcml0eTEdMBsGCSqGSIb3DQEJARYO
bWFpbmNhQGFybS5jb20wHhcNMTkwMzA2MTYwMzE4WhcNMjkwMzAzMTYwMzE4WjBr
MQswCQYDVQQGEwJVSzELMAkGA1UECAwCQ0IxDDAKBgNVBAoMA0FybTEdMBsGA1UE
AwwUbGliZGRzc2VjQXBwbGljYXRpb24xIjAgBgkqhkiG9w0BCQEWE2FwcGxpY2F0
aW9uQGFybS5jb20wWTATBgcqhkjOPQIBBggqhkjOPQMBBwNCAAQEaRy6Q6mjW+k5
T/kPllHse0DQLSjUgZ7gBrP97v90Wn1O7HgabzYWwYlaTSEgsdVdVOq6KJg7qDfn
TWB4ZX4ZMAoGCCqGSM49BAMCA0cAMEQCICvfhgcoYGA0RnRp/HMSnfXFNYJTeV7j
zCsASV129zZdAiAm6rxhYaT5wgqDH66XLTwl636GcHD43QaAmaeK2OjhNQ==
-----END CERTIFICATE-----
