Certificate:
    Data:
        Version: 1 (0x0)
        Serial Number: 16262116442918379124 (0xe1aea4be94305e74)
    Signature Algorithm: ecdsa-with-SHA256
        Issuer: C=UK, ST=CB, L=Cambridge, O=Arm, CN=CerticateAuthority_shortTerm/emailAddress=mainca@arm.com
        Validity
            Not Before: Mar 29 12:49:39 2019 GMT
            Not After : Mar 30 12:49:39 2019 GMT
        Subject: C=UK, ST=CB, O=Arm, CN=libddssecApplication/emailAddress=application@arm.com
        Subject Public Key Info:
            Public Key Algorithm: id-ecPublicKey
                Public-Key: (256 bit)
                pub: 
                    04:8c:45:e8:14:e8:e4:66:c0:b5:1a:33:6b:6f:6f:
                    c3:f9:18:60:da:cf:9f:65:7d:01:3c:a1:b7:6d:94:
                    1a:3e:19:d5:c9:5d:e3:4a:12:a0:dc:bd:0d:cc:78:
                    b2:4c:00:ae:9b:36:c2:b3:83:a3:95:87:1d:e3:3b:
                    44:b5:4f:90:88
                ASN1 OID: prime256v1
                NIST CURVE: P-256
    Signature Algorithm: ecdsa-with-SHA256
         30:44:02:20:38:d5:06:d3:e2:ee:b4:c5:ef:0c:64:89:52:d7:
         90:ad:80:2f:a9:8b:0d:9e:e6:62:35:c3:4d:97:04:1e:0e:62:
         02:20:72:e5:8c:db:b2:eb:6d:d8:e6:06:e9:14:b0:c1:99:14:
         94:3e:f5:bc:68:f2:39:bf:58:fb:62:94:46:a2:02:a0
-----BEGIN CERTIFICATE-----
MIIB3TCCAYQCCQDhrqS+lDBedDAKBggqhkjOPQQDAjCBgjELMAkGA1UEBhMCVUsx
CzAJBgNVBAgMAkNCMRIwEAYDVQQHDAlDYW1icmlkZ2UxDDAKBgNVBAoMA0FybTEl
MCMGA1UEAwwcQ2VydGljYXRlQXV0aG9yaXR5X3Nob3J0VGVybTEdMBsGCSqGSIb3
DQEJARYObWFpbmNhQGFybS5jb20wHhcNMTkwMzI5MTI0OTM5WhcNMTkwMzMwMTI0
OTM5WjBrMQswCQYDVQQGEwJVSzELMAkGA1UECAwCQ0IxDDAKBgNVBAoMA0FybTEd
MBsGA1UEAwwUbGliZGRzc2VjQXBwbGljYXRpb24xIjAgBgkqhkiG9w0BCQEWE2Fw
cGxpY2F0aW9uQGFybS5jb20wWTATBgcqhkjOPQIBBggqhkjOPQMBBwNCAASMRegU
6ORmwLUaM2tvb8P5GGDaz59lfQE8obdtlBo+GdXJXeNKEqDcvQ3MeLJMAK6bNsKz
g6OVhx3jO0S1T5CIMAoGCCqGSM49BAMCA0cAMEQCIDjVBtPi7rTF7wxkiVLXkK2A
L6mLDZ7mYjXDTZcEHg5iAiBy5Yzbsutt2OYG6RSwwZkUlD71vGjyOb9Y+2KURqIC
oA==
-----END CERTIFICATE-----
