Certificate:
    Data:
        Version: 1 (0x0)
        Serial Number: 12327102009715709290 (0xab12a9f74f1bd56a)
    Signature Algorithm: ecdsa-with-SHA256
        Issuer: C=UK, ST=CB, L=Cambridge, O=Arm, CN=libddssecCerticateAuthority/emailAddress=mainca@arm.com
        Validity
            Not Before: Feb 15 13:10:50 2019 GMT
            Not After : Feb 12 13:10:50 2029 GMT
        Subject: C=UK, ST=CB, O=Arm, CN=libddssecApplication/emailAddress=application@arm.com
        Subject Public Key Info:
            Public Key Algorithm: id-ecPublicKey
                Public-Key: (256 bit)
                pub: 
                    04:34:1a:3a:d0:e2:e4:e9:d3:80:73:94:9f:a9:30:
                    1c:5c:a1:82:e2:3e:8d:f5:a4:ec:8a:c8:d5:0f:1a:
                    c1:2c:60:18:1f:1d:f0:d9:b1:cc:ff:f5:dc:51:13:
                    3e:35:b2:4f:fc:a3:73:60:38:92:82:97:72:46:3b:
                    48:32:fd:cb:b7
                ASN1 OID: prime256v1
                NIST CURVE: P-256
    Signature Algorithm: ecdsa-with-SHA256
         30:45:02:21:00:d0:b3:43:ae:c6:93:7f:88:a5:e5:e9:46:4e:
         27:72:47:af:32:82:71:99:c7:23:30:17:0e:2b:c7:40:44:cb:
         ab:02:20:1a:05:89:0a:12:18:9c:70:85:1e:e4:a1:bb:64:6c:
         ba:ae:8b:d9:cd:a3:fb:99:78:36:54:9c:b6:91:a0:1a:b8
-----BEGIN CERTIFICATE-----
MIIB3TCCAYMCCQCrEqn3TxvVajAKBggqhkjOPQQDAjCBgTELMAkGA1UEBhMCVUsx
CzAJBgNVBAgMAkNCMRIwEAYDVQQHDAlDYW1icmlkZ2UxDDAKBgNVBAoMA0FybTEk
MCIGA1UEAwwbbGliZGRzc2VjQ2VydGljYXRlQXV0aG9yaXR5MR0wGwYJKoZIhvcN
AQkBFg5tYWluY2FAYXJtLmNvbTAeFw0xOTAyMTUxMzEwNTBaFw0yOTAyMTIxMzEw
NTBaMGsxCzAJBgNVBAYTAlVLMQswCQYDVQQIDAJDQjEMMAoGA1UECgwDQXJtMR0w
GwYDVQQDDBRsaWJkZHNzZWNBcHBsaWNhdGlvbjEiMCAGCSqGSIb3DQEJARYTYXBw
bGljYXRpb25AYXJtLmNvbTBZMBMGByqGSM49AgEGCCqGSM49AwEHA0IABDQaOtDi
5OnTgHOUn6kwHFyhguI+jfWk7IrI1Q8awSxgGB8d8NmxzP/13FETPjWyT/yjc2A4
koKXckY7SDL9y7cwCgYIKoZIzj0EAwIDSAAwRQIhANCzQ67Gk3+IpeXpRk4nckev
MoJxmccjMBcOK8dARMurAiAaBYkKEhiccIUe5KG7ZGy6rovZzaP7mXg2VJy2kaAa
uA==
-----END CERTIFICATE-----
